target datalayout = "e-m:e-p270:32:32-p271:32:32-p272:64:64-i64:64-i128:128-f80:128-n8:16:32:64-S128"
target triple = "x86_64-pc-linux-gnu"

%struct._packet_info = type { ptr, ptr, i32, i32, %struct.nstime_t, %struct.nstime_t, %struct.nstime_t, i8, ptr, ptr, ptr, ptr, %struct._address, %struct._address, %struct._address, %struct._address, %struct._address, %struct._address, i32, ptr, i8, [3 x i8], %struct.anon, i32, i32, i32, i32, ptr, i8, ptr, ptr, i16, i16, i32, i32, i16, i32, i32, ptr, ptr, ptr, i8, i8, i16, i16, i16, i32, i16, i16, ptr, ptr, ptr, ptr, ptr, i32, i32 }
%struct.nstime_t = type { i64, i32 }
%struct._address = type { i32, i32, ptr, ptr }
%struct.anon = type { i8, [3 x i8] }

@.str.131 = private unnamed_addr constant [46 x i8] c"%s:%u: failed assertion n == len (%ld == %ld)\00", align 1
@.str.132 = private unnamed_addr constant [31 x i8] c"epan/dissectors/packet-http3.c\00", align 1

; Function Attrs: null_pointer_is_valid sspstrong uwtable
define internal zeroext i1 @try_get_quic_varint(ptr noundef %0, i32 noundef %1, ptr noundef %2, ptr noundef %3) #0 {
  %5 = alloca i1, align 1
  %6 = alloca ptr, align 8
  %7 = alloca i32, align 4
  %8 = alloca ptr, align 8
  %9 = alloca ptr, align 8
  %10 = alloca i32, align 4
  %11 = alloca i32, align 4
  %12 = alloca i32, align 4
  store ptr %0, ptr %6, align 8
  store i32 %1, ptr %7, align 4
  store ptr %2, ptr %8, align 8
  store ptr %3, ptr %9, align 8
  %13 = load ptr, ptr %6, align 8
  %14 = load i32, ptr %7, align 4
  %15 = call i32 @tvb_reported_length_remaining(ptr noundef %13, i32 noundef %14)
  %16 = icmp eq i32 %15, 0
  br i1 %16, label %17, label %18

17:                                               ; preds = %4
  store i1 false, ptr %5, align 1
  br label %54

18:                                               ; preds = %4
  call void @llvm.lifetime.start.p0(i64 4, ptr %10) #15
  %19 = load ptr, ptr %6, align 8
  %20 = load i32, ptr %7, align 4
  %21 = call zeroext i8 @tvb_get_uint8(ptr noundef %19, i32 noundef %20)
  %22 = zext i8 %21 to i32
  %23 = ashr i32 %22, 6
  %24 = shl i32 1, %23
  store i32 %24, ptr %10, align 4
  %25 = load ptr, ptr %6, align 8
  %26 = load i32, ptr %7, align 4
  %27 = call i32 @tvb_reported_length_remaining(ptr noundef %25, i32 noundef %26)
  %28 = load i32, ptr %10, align 4
  %29 = icmp slt i32 %27, %28
  br i1 %29, label %30, label %31

30:                                               ; preds = %18
  store i1 false, ptr %5, align 1
  store i32 1, ptr %11, align 4
  br label %53

31:                                               ; preds = %18
  %32 = load i32, ptr %10, align 4
  %33 = load ptr, ptr %9, align 8
  store i32 %32, ptr %33, align 4
  %34 = load ptr, ptr %8, align 8
  %35 = icmp ne ptr %34, null
  br i1 %35, label %36, label %52

36:                                               ; preds = %31
  call void @llvm.lifetime.start.p0(i64 4, ptr %12) #15
  %37 = load ptr, ptr %6, align 8
  %38 = load i32, ptr %7, align 4
  %39 = load ptr, ptr %8, align 8
  %40 = call i32 @tvb_get_varint(ptr noundef %37, i32 noundef %38, i32 noundef -1, ptr noundef %39, i32 noundef 4)
  store i32 %40, ptr %12, align 4
  %41 = load i32, ptr %12, align 4
  %42 = load i32, ptr %10, align 4
  %43 = icmp eq i32 %41, %42
  br i1 %43, label %44, label %45

44:                                               ; preds = %36
  br label %51

45:                                               ; preds = %36
  %46 = load i32, ptr %12, align 4
  %47 = sext i32 %46 to i64
  %48 = load i32, ptr %10, align 4
  %49 = sext i32 %48 to i64
  call void (ptr, ...) @proto_report_dissector_bug(ptr noundef @.str.131, ptr noundef @.str.132, i32 noundef 528, i64 noundef %47, i64 noundef %49) #17
  unreachable

50:                                               ; No predecessors!
  br label %51

51:                                               ; preds = %50, %44
  call void @llvm.lifetime.end.p0(i64 4, ptr %12) #15
  br label %52

52:                                               ; preds = %51, %31
  store i1 true, ptr %5, align 1
  store i32 1, ptr %11, align 4
  br label %53

53:                                               ; preds = %52, %30
  call void @llvm.lifetime.end.p0(i64 4, ptr %10) #15
  br label %54

54:                                               ; preds = %53, %17
  %55 = load i1, ptr %5, align 1
  ret i1 %55
}

; Function Attrs: null_pointer_is_valid sspstrong uwtable
define internal i32 @get_http3_frame_size(ptr noundef %0, i32 noundef %1) #0 {
  %3 = alloca i32, align 4
  %4 = alloca ptr, align 8
  %5 = alloca i32, align 4
  %6 = alloca i32, align 4
  %7 = alloca i32, align 4
  %8 = alloca i64, align 8
  %9 = alloca i32, align 4
  %10 = alloca i64, align 8
  store ptr %0, ptr %4, align 8
  store i32 %1, ptr %5, align 4
  call void @llvm.lifetime.start.p0(i64 4, ptr %6) #15
  call void @llvm.lifetime.start.p0(i64 4, ptr %7) #15
  call void @llvm.lifetime.start.p0(i64 8, ptr %8) #15
  %11 = load ptr, ptr %4, align 8
  %12 = load i32, ptr %5, align 4
  %13 = call zeroext i1 @try_get_quic_varint(ptr noundef %11, i32 noundef %12, ptr noundef null, ptr noundef %6)
  br i1 %13, label %15, label %14

14:                                               ; preds = %2
  store i32 0, ptr %3, align 4
  store i32 1, ptr %9, align 4
  br label %37

15:                                               ; preds = %2
  %16 = load i32, ptr %6, align 4
  %17 = load i32, ptr %5, align 4
  %18 = add i32 %17, %16
  store i32 %18, ptr %5, align 4
  %19 = load ptr, ptr %4, align 8
  %20 = load i32, ptr %5, align 4
  %21 = call zeroext i1 @try_get_quic_varint(ptr noundef %19, i32 noundef %20, ptr noundef %8, ptr noundef %7)
  br i1 %21, label %23, label %22

22:                                               ; preds = %15
  store i32 0, ptr %3, align 4
  store i32 1, ptr %9, align 4
  br label %37

23:                                               ; preds = %15
  call void @llvm.lifetime.start.p0(i64 8, ptr %10) #15
  %24 = load i32, ptr %6, align 4
  %25 = load i32, ptr %7, align 4
  %26 = add i32 %24, %25
  %27 = sext i32 %26 to i64
  %28 = load i64, ptr %8, align 8
  %29 = add i64 %27, %28
  store i64 %29, ptr %10, align 8
  %30 = load i64, ptr %10, align 8
  %31 = icmp ugt i64 %30, 2147483647
  br i1 %31, label %32, label %33

32:                                               ; preds = %23
  store i32 0, ptr %3, align 4
  store i32 1, ptr %9, align 4
  br label %36

33:                                               ; preds = %23
  %34 = load i64, ptr %10, align 8
  %35 = trunc i64 %34 to i32
  store i32 %35, ptr %3, align 4
  store i32 1, ptr %9, align 4
  br label %36

36:                                               ; preds = %33, %32
  call void @llvm.lifetime.end.p0(i64 8, ptr %10) #15
  br label %37

37:                                               ; preds = %36, %22, %14
  call void @llvm.lifetime.end.p0(i64 8, ptr %8) #15
  call void @llvm.lifetime.end.p0(i64 4, ptr %7) #15
  call void @llvm.lifetime.end.p0(i64 4, ptr %6) #15
  %38 = load i32, ptr %3, align 4
  ret i32 %38
}

; Function Attrs: null_pointer_is_valid sspstrong uwtable
define internal zeroext i1 @http3_check_frame_size(ptr noundef %0, ptr noundef %1, i32 noundef %2) #0 {
  %4 = alloca i1, align 1
  %5 = alloca ptr, align 8
  %6 = alloca ptr, align 8
  %7 = alloca i32, align 4
  %8 = alloca i32, align 4
  %9 = alloca i32, align 4
  %10 = alloca i32, align 4
  store ptr %0, ptr %5, align 8
  store ptr %1, ptr %6, align 8
  store i32 %2, ptr %7, align 4
  call void @llvm.lifetime.start.p0(i64 4, ptr %8) #15
  %11 = load ptr, ptr %5, align 8
  %12 = load i32, ptr %7, align 4
  %13 = call i32 @get_http3_frame_size(ptr noundef %11, i32 noundef %12)
  store i32 %13, ptr %8, align 4
  call void @llvm.lifetime.start.p0(i64 4, ptr %9) #15
  %14 = load ptr, ptr %5, align 8
  %15 = load i32, ptr %7, align 4
  %16 = call i32 @tvb_reported_length_remaining(ptr noundef %14, i32 noundef %15)
  store i32 %16, ptr %9, align 4
  %17 = load i32, ptr %8, align 4
  %18 = icmp ne i32 %17, 0
  br i1 %18, label %19, label %24

19:                                               ; preds = %3
  %20 = load i32, ptr %8, align 4
  %21 = load i32, ptr %9, align 4
  %22 = icmp sle i32 %20, %21
  br i1 %22, label %23, label %24

23:                                               ; preds = %19
  store i1 true, ptr %4, align 1
  store i32 1, ptr %10, align 4
  br label %39

24:                                               ; preds = %19, %3
  %25 = load i32, ptr %7, align 4
  %26 = load ptr, ptr %6, align 8
  %27 = getelementptr inbounds nuw %struct._packet_info, ptr %26, i32 0, i32 33
  store i32 %25, ptr %27, align 4
  %28 = load i32, ptr %8, align 4
  %29 = icmp ne i32 %28, 0
  br i1 %29, label %30, label %34

30:                                               ; preds = %24
  %31 = load i32, ptr %8, align 4
  %32 = load i32, ptr %9, align 4
  %33 = sub i32 %31, %32
  br label %35

34:                                               ; preds = %24
  br label %35

35:                                               ; preds = %34, %30
  %36 = phi i32 [ %33, %30 ], [ 268435455, %34 ]
  %37 = load ptr, ptr %6, align 8
  %38 = getelementptr inbounds nuw %struct._packet_info, ptr %37, i32 0, i32 34
  store i32 %36, ptr %38, align 8
  store i1 false, ptr %4, align 1
  store i32 1, ptr %10, align 4
  br label %39

39:                                               ; preds = %35, %23
  call void @llvm.lifetime.end.p0(i64 4, ptr %9) #15
  call void @llvm.lifetime.end.p0(i64 4, ptr %8) #15
  %40 = load i1, ptr %4, align 1
  ret i1 %40
}