; Function Attrs: null_pointer_is_valid sspstrong uwtable
define internal fastcc noundef zeroext i1 @http3_check_frame_size(ptr noundef %0, ptr noundef writeonly captures(none) %1, i32 noundef %2) unnamed_addr #0 {
  %4 = alloca i64, align 8
  call void @llvm.lifetime.start.p0(i64 8, ptr nonnull %4) #15
  %5 = tail call i32 @tvb_reported_length_remaining(ptr noundef %0, i32 noundef %2)
  %6 = icmp eq i32 %5, 0
  br i1 %6, label %get_http3_frame_size.exit, label %7

7:                                                ; preds = %3
  %8 = tail call zeroext i8 @tvb_get_uint8(ptr noundef %0, i32 noundef %2)
  %9 = lshr i8 %8, 6
  %10 = zext nneg i8 %9 to i32
  %11 = shl nuw nsw i32 1, %10
  %12 = tail call i32 @tvb_reported_length_remaining(ptr noundef %0, i32 noundef %2)
  %.not20.i.i = icmp slt i32 %12, %11
  br i1 %.not20.i.i, label %get_http3_frame_size.exit, label %try_get_quic_varint.exit.i

try_get_quic_varint.exit.i:                       ; preds = %7
  %13 = add i32 %11, %2
  %14 = tail call i32 @tvb_reported_length_remaining(ptr noundef %0, i32 noundef %13)
  %15 = icmp eq i32 %14, 0
  br i1 %15, label %get_http3_frame_size.exit, label %16

16:                                               ; preds = %try_get_quic_varint.exit.i
  %17 = tail call zeroext i8 @tvb_get_uint8(ptr noundef %0, i32 noundef %13)
  %18 = lshr i8 %17, 6
  %19 = zext nneg i8 %18 to i32
  %20 = shl nuw nsw i32 1, %19
  %21 = tail call i32 @tvb_reported_length_remaining(ptr noundef %0, i32 noundef %13)
  %.not20.i8.i = icmp slt i32 %21, %20
  br i1 %.not20.i8.i, label %get_http3_frame_size.exit, label %22

22:                                               ; preds = %16
  %23 = call i32 @tvb_get_varint(ptr noundef %0, i32 noundef %13, i32 noundef -1, ptr noundef nonnull %4, i32 noundef 4)
  %24 = icmp eq i32 %23, %20
  br i1 %24, label %try_get_quic_varint.exit10.i, label %25

25:                                               ; preds = %22
  %26 = sext i32 %23 to i64
  %27 = zext nneg i32 %20 to i64
  call void (ptr, ...) @proto_report_dissector_bug(ptr noundef nonnull @.str.131, ptr noundef nonnull @.str.132, i32 noundef 528, i64 noundef %26, i64 noundef %27) #16
  unreachable

try_get_quic_varint.exit10.i:                     ; preds = %22
  %28 = add nuw nsw i32 %20, %11
  %29 = zext nneg i32 %28 to i64
  %30 = load i64, ptr %4, align 8
  %31 = add i64 %30, %29
  %32 = icmp ugt i64 %31, 2147483647
  %33 = trunc nuw nsw i64 %31 to i32
  %.1.i = select i1 %32, i32 0, i32 %33
  br label %get_http3_frame_size.exit

get_http3_frame_size.exit:                        ; preds = %3, %7, %try_get_quic_varint.exit.i, %16, %try_get_quic_varint.exit10.i
  %.0.i = phi i32 [ %.1.i, %try_get_quic_varint.exit10.i ], [ 0, %3 ], [ 0, %7 ], [ 0, %try_get_quic_varint.exit.i ], [ 0, %16 ]
  call void @llvm.lifetime.end.p0(i64 8, ptr nonnull %4) #15
  %34 = call i32 @tvb_reported_length_remaining(ptr noundef %0, i32 noundef %2)
  %.not = icmp ne i32 %.0.i, 0
  %.not14 = icmp sle i32 %.0.i, %34
  %or.cond.not = select i1 %.not, i1 %.not14, i1 false
  br i1 %or.cond.not, label %40, label %35

35:                                               ; preds = %get_http3_frame_size.exit
  %36 = getelementptr inbounds nuw i8, ptr %1, i64 332
  store i32 %2, ptr %36, align 4
  %37 = sub i32 %.0.i, %34
  %38 = select i1 %.not, i32 %37, i32 268435455
  %39 = getelementptr inbounds nuw i8, ptr %1, i64 336
  store i32 %38, ptr %39, align 8
  br label %40

40:                                               ; preds = %get_http3_frame_size.exit, %35
  ret i1 %or.cond.not
}